; Function Attrs: mustprogress nounwind uwtable
define dso_local { ptr, i64 } @_ZNK4llvm6Triple23getOSAndEnvironmentNameEv(ptr noundef nonnull align 8 dereferenceable(56) %0) local_unnamed_addr #4 align 2 {
  %2 = alloca i8, align 1
  %3 = alloca i8, align 1
  %4 = alloca %"class.llvm::StringRef", align 8
  %5 = alloca %"class.llvm::StringRef", align 8
  %6 = tail call noundef ptr @_ZNKSt7__cxx1112basic_stringIcSt11char_traitsIcESaIcEE4dataEv(ptr noundef nonnull align 8 dereferenceable(32) %0) #15
  store ptr %6, ptr %5, align 8
  %7 = getelementptr inbounds i8, ptr %5, i64 8
  %8 = tail call noundef i64 @_ZNKSt7__cxx1112basic_stringIcSt11char_traitsIcESaIcEE6lengthEv(ptr noundef nonnull align 8 dereferenceable(32) %0) #15
  store i64 %8, ptr %7, align 8
  call void @llvm.lifetime.start.p0(i64 1, ptr nonnull %3)
  store i8 45, ptr %3, align 1, !noalias !140
  %9 = call noundef i64 @_ZNK4llvm9StringRef4findES0_m(ptr noundef nonnull align 8 dereferenceable(16) %5, ptr nonnull %3, i64 1, i64 noundef 0) #15, !noalias !143
  %10 = icmp eq i64 %9, -1
  br i1 %10, label %_ZNK4llvm9StringRef5splitEc.exit, label %11

11:                                               ; preds = %1
  %12 = load i64, ptr %7, align 8, !noalias !143
  %13 = load ptr, ptr %5, align 8, !noalias !143
  %14 = add nuw i64 %9, 1
  %.sroa.speculated5.i.i.i = call i64 @llvm.umin.i64(i64 %12, i64 %14)
  %15 = getelementptr inbounds i8, ptr %13, i64 %.sroa.speculated5.i.i.i
  %16 = sub i64 %12, %.sroa.speculated5.i.i.i
  br label %_ZNK4llvm9StringRef5splitEc.exit

_ZNK4llvm9StringRef5splitEc.exit:                 ; preds = %1, %11
  %.sroa.310.0 = phi ptr [ %15, %11 ], [ null, %1 ]
  %.sroa.611.0 = phi i64 [ %16, %11 ], [ 0, %1 ]
  call void @llvm.lifetime.end.p0(i64 1, ptr nonnull %3)
  store ptr %.sroa.310.0, ptr %4, align 8
  %.sroa.611.16..sroa_idx = getelementptr inbounds i8, ptr %4, i64 8
  store i64 %.sroa.611.0, ptr %.sroa.611.16..sroa_idx, align 8
  call void @llvm.lifetime.start.p0(i64 1, ptr nonnull %2)
  store i8 45, ptr %2, align 1, !noalias !146
  %17 = call noundef i64 @_ZNK4llvm9StringRef4findES0_m(ptr noundef nonnull align 8 dereferenceable(16) %4, ptr nonnull %2, i64 1, i64 noundef 0) #15, !noalias !149
  %18 = icmp eq i64 %17, -1
  br i1 %18, label %_ZNK4llvm9StringRef5splitEc.exit4, label %19

19:                                               ; preds = %_ZNK4llvm9StringRef5splitEc.exit
  %20 = load i64, ptr %.sroa.611.16..sroa_idx, align 8, !noalias !149
  %21 = load ptr, ptr %4, align 8, !noalias !149
  %22 = add nuw i64 %17, 1
  %.sroa.speculated5.i.i.i1 = call i64 @llvm.umin.i64(i64 %20, i64 %22)
  %23 = getelementptr inbounds i8, ptr %21, i64 %.sroa.speculated5.i.i.i1
  %24 = sub i64 %20, %.sroa.speculated5.i.i.i1
  br label %_ZNK4llvm9StringRef5splitEc.exit4

_ZNK4llvm9StringRef5splitEc.exit4:                ; preds = %_ZNK4llvm9StringRef5splitEc.exit, %19
  %.sroa.3.0 = phi ptr [ %23, %19 ], [ null, %_ZNK4llvm9StringRef5splitEc.exit ]
  %.sroa.6.0 = phi i64 [ %24, %19 ], [ 0, %_ZNK4llvm9StringRef5splitEc.exit ]
  call void @llvm.lifetime.end.p0(i64 1, ptr nonnull %2)
  %.fca.0.insert = insertvalue { ptr, i64 } poison, ptr %.sroa.3.0, 0
  %.fca.1.insert = insertvalue { ptr, i64 } %.fca.0.insert, i64 %.sroa.6.0, 1
  ret { ptr, i64 } %.fca.1.insert
}